target datalayout = "e-m:e-p270:32:32-p271:32:32-p272:64:64-i64:64-i128:128-f80:128-n8:16:32:64-S128"
target triple = "x86_64-pc-linux-gnu"

%struct.ct_data_s = type { %union.anon, %union.anon.0 }
%union.anon = type { i16 }
%union.anon.0 = type { i16 }
%struct.internal_state = type { ptr, i32, ptr, i64, ptr, i64, i32, ptr, i64, i8, i32, i32, i32, i32, ptr, i64, ptr, ptr, i32, i32, i32, i32, i32, i64, i32, i32, i32, i32, i32, i32, i32, i32, i32, i32, i32, i32, i32, [573 x %struct.ct_data_s], [61 x %struct.ct_data_s], [39 x %struct.ct_data_s], %struct.tree_desc_s, %struct.tree_desc_s, %struct.tree_desc_s, [16 x i16], [573 x i32], i32, i32, [573 x i8], ptr, i32, i32, i32, i64, i64, i32, i32, i16, i32, i64 }
%struct.tree_desc_s = type { ptr, i32, ptr }

; Function Attrs: nounwind uwtable
define internal void @bi_windup(ptr noundef %0) #0 {
  %2 = alloca ptr, align 8
  store ptr %0, ptr %2, align 8
  %3 = load ptr, ptr %2, align 8
  %4 = getelementptr inbounds %struct.internal_state, ptr %3, i32 0, i32 57
  %5 = load i32, ptr %4, align 4
  %6 = icmp sgt i32 %5, 8
  br i1 %6, label %7, label %36

7:                                                ; preds = %1
  %8 = load ptr, ptr %2, align 8
  %9 = getelementptr inbounds %struct.internal_state, ptr %8, i32 0, i32 56
  %10 = load i16, ptr %9, align 8
  %11 = zext i16 %10 to i32
  %12 = and i32 %11, 255
  %13 = trunc i32 %12 to i8
  %14 = load ptr, ptr %2, align 8
  %15 = getelementptr inbounds %struct.internal_state, ptr %14, i32 0, i32 2
  %16 = load ptr, ptr %15, align 8
  %17 = load ptr, ptr %2, align 8
  %18 = getelementptr inbounds %struct.internal_state, ptr %17, i32 0, i32 5
  %19 = load i64, ptr %18, align 8
  %20 = add i64 %19, 1
  store i64 %20, ptr %18, align 8
  %21 = getelementptr inbounds i8, ptr %16, i64 %19
  store i8 %13, ptr %21, align 1
  %22 = load ptr, ptr %2, align 8
  %23 = getelementptr inbounds %struct.internal_state, ptr %22, i32 0, i32 56
  %24 = load i16, ptr %23, align 8
  %25 = zext i16 %24 to i32
  %26 = ashr i32 %25, 8
  %27 = trunc i32 %26 to i8
  %28 = load ptr, ptr %2, align 8
  %29 = getelementptr inbounds %struct.internal_state, ptr %28, i32 0, i32 2
  %30 = load ptr, ptr %29, align 8
  %31 = load ptr, ptr %2, align 8
  %32 = getelementptr inbounds %struct.internal_state, ptr %31, i32 0, i32 5
  %33 = load i64, ptr %32, align 8
  %34 = add i64 %33, 1
  store i64 %34, ptr %32, align 8
  %35 = getelementptr inbounds i8, ptr %30, i64 %33
  store i8 %27, ptr %35, align 1
  br label %55

36:                                               ; preds = %1
  %37 = load ptr, ptr %2, align 8
  %38 = getelementptr inbounds %struct.internal_state, ptr %37, i32 0, i32 57
  %39 = load i32, ptr %38, align 4
  %40 = icmp sgt i32 %39, 0
  br i1 %40, label %41, label %54

41:                                               ; preds = %36
  %42 = load ptr, ptr %2, align 8
  %43 = getelementptr inbounds %struct.internal_state, ptr %42, i32 0, i32 56
  %44 = load i16, ptr %43, align 8
  %45 = trunc i16 %44 to i8
  %46 = load ptr, ptr %2, align 8
  %47 = getelementptr inbounds %struct.internal_state, ptr %46, i32 0, i32 2
  %48 = load ptr, ptr %47, align 8
  %49 = load ptr, ptr %2, align 8
  %50 = getelementptr inbounds %struct.internal_state, ptr %49, i32 0, i32 5
  %51 = load i64, ptr %50, align 8
  %52 = add i64 %51, 1
  store i64 %52, ptr %50, align 8
  %53 = getelementptr inbounds i8, ptr %48, i64 %51
  store i8 %45, ptr %53, align 1
  br label %54

54:                                               ; preds = %41, %36
  br label %55

55:                                               ; preds = %54, %7
  %56 = load ptr, ptr %2, align 8
  %57 = getelementptr inbounds %struct.internal_state, ptr %56, i32 0, i32 56
  store i16 0, ptr %57, align 8
  %58 = load ptr, ptr %2, align 8
  %59 = getelementptr inbounds %struct.internal_state, ptr %58, i32 0, i32 57
  store i32 0, ptr %59, align 4
  ret void
}

; Function Attrs: nounwind uwtable
define dso_local void @cm_zlib__tr_stored_block(ptr noundef %0, ptr noundef %1, i64 noundef %2, i32 noundef %3) #0 {
  %5 = alloca ptr, align 8
  %6 = alloca ptr, align 8
  %7 = alloca i64, align 8
  %8 = alloca i32, align 4
  %9 = alloca i32, align 4
  %10 = alloca i32, align 4
  store ptr %0, ptr %5, align 8
  store ptr %1, ptr %6, align 8
  store i64 %2, ptr %7, align 8
  store i32 %3, ptr %8, align 4
  store i32 3, ptr %9, align 4
  %11 = load ptr, ptr %5, align 8
  %12 = getelementptr inbounds %struct.internal_state, ptr %11, i32 0, i32 57
  %13 = load i32, ptr %12, align 4
  %14 = load i32, ptr %9, align 4
  %15 = sub nsw i32 16, %14
  %16 = icmp sgt i32 %13, %15
  br i1 %16, label %17, label %78

17:                                               ; preds = %4
  %18 = load i32, ptr %8, align 4
  %19 = add nsw i32 0, %18
  store i32 %19, ptr %10, align 4
  %20 = load i32, ptr %10, align 4
  %21 = trunc i32 %20 to i16
  %22 = zext i16 %21 to i32
  %23 = load ptr, ptr %5, align 8
  %24 = getelementptr inbounds %struct.internal_state, ptr %23, i32 0, i32 57
  %25 = load i32, ptr %24, align 4
  %26 = shl i32 %22, %25
  %27 = load ptr, ptr %5, align 8
  %28 = getelementptr inbounds %struct.internal_state, ptr %27, i32 0, i32 56
  %29 = load i16, ptr %28, align 8
  %30 = zext i16 %29 to i32
  %31 = or i32 %30, %26
  %32 = trunc i32 %31 to i16
  store i16 %32, ptr %28, align 8
  %33 = load ptr, ptr %5, align 8
  %34 = getelementptr inbounds %struct.internal_state, ptr %33, i32 0, i32 56
  %35 = load i16, ptr %34, align 8
  %36 = zext i16 %35 to i32
  %37 = and i32 %36, 255
  %38 = trunc i32 %37 to i8
  %39 = load ptr, ptr %5, align 8
  %40 = getelementptr inbounds %struct.internal_state, ptr %39, i32 0, i32 2
  %41 = load ptr, ptr %40, align 8
  %42 = load ptr, ptr %5, align 8
  %43 = getelementptr inbounds %struct.internal_state, ptr %42, i32 0, i32 5
  %44 = load i64, ptr %43, align 8
  %45 = add i64 %44, 1
  store i64 %45, ptr %43, align 8
  %46 = getelementptr inbounds i8, ptr %41, i64 %44
  store i8 %38, ptr %46, align 1
  %47 = load ptr, ptr %5, align 8
  %48 = getelementptr inbounds %struct.internal_state, ptr %47, i32 0, i32 56
  %49 = load i16, ptr %48, align 8
  %50 = zext i16 %49 to i32
  %51 = ashr i32 %50, 8
  %52 = trunc i32 %51 to i8
  %53 = load ptr, ptr %5, align 8
  %54 = getelementptr inbounds %struct.internal_state, ptr %53, i32 0, i32 2
  %55 = load ptr, ptr %54, align 8
  %56 = load ptr, ptr %5, align 8
  %57 = getelementptr inbounds %struct.internal_state, ptr %56, i32 0, i32 5
  %58 = load i64, ptr %57, align 8
  %59 = add i64 %58, 1
  store i64 %59, ptr %57, align 8
  %60 = getelementptr inbounds i8, ptr %55, i64 %58
  store i8 %52, ptr %60, align 1
  %61 = load i32, ptr %10, align 4
  %62 = trunc i32 %61 to i16
  %63 = zext i16 %62 to i32
  %64 = load ptr, ptr %5, align 8
  %65 = getelementptr inbounds %struct.internal_state, ptr %64, i32 0, i32 57
  %66 = load i32, ptr %65, align 4
  %67 = sub nsw i32 16, %66
  %68 = ashr i32 %63, %67
  %69 = trunc i32 %68 to i16
  %70 = load ptr, ptr %5, align 8
  %71 = getelementptr inbounds %struct.internal_state, ptr %70, i32 0, i32 56
  store i16 %69, ptr %71, align 8
  %72 = load i32, ptr %9, align 4
  %73 = sub nsw i32 %72, 16
  %74 = load ptr, ptr %5, align 8
  %75 = getelementptr inbounds %struct.internal_state, ptr %74, i32 0, i32 57
  %76 = load i32, ptr %75, align 4
  %77 = add nsw i32 %76, %73
  store i32 %77, ptr %75, align 4
  br label %98

78:                                               ; preds = %4
  %79 = load i32, ptr %8, align 4
  %80 = add nsw i32 0, %79
  %81 = trunc i32 %80 to i16
  %82 = zext i16 %81 to i32
  %83 = load ptr, ptr %5, align 8
  %84 = getelementptr inbounds %struct.internal_state, ptr %83, i32 0, i32 57
  %85 = load i32, ptr %84, align 4
  %86 = shl i32 %82, %85
  %87 = load ptr, ptr %5, align 8
  %88 = getelementptr inbounds %struct.internal_state, ptr %87, i32 0, i32 56
  %89 = load i16, ptr %88, align 8
  %90 = zext i16 %89 to i32
  %91 = or i32 %90, %86
  %92 = trunc i32 %91 to i16
  store i16 %92, ptr %88, align 8
  %93 = load i32, ptr %9, align 4
  %94 = load ptr, ptr %5, align 8
  %95 = getelementptr inbounds %struct.internal_state, ptr %94, i32 0, i32 57
  %96 = load i32, ptr %95, align 4
  %97 = add nsw i32 %96, %93
  store i32 %97, ptr %95, align 4
  br label %98

98:                                               ; preds = %78, %17
  %99 = load ptr, ptr %5, align 8
  call void @bi_windup(ptr noundef %99)
  %100 = load i64, ptr %7, align 8
  %101 = trunc i64 %100 to i16
  %102 = zext i16 %101 to i32
  %103 = and i32 %102, 255
  %104 = trunc i32 %103 to i8
  %105 = load ptr, ptr %5, align 8
  %106 = getelementptr inbounds %struct.internal_state, ptr %105, i32 0, i32 2
  %107 = load ptr, ptr %106, align 8
  %108 = load ptr, ptr %5, align 8
  %109 = getelementptr inbounds %struct.internal_state, ptr %108, i32 0, i32 5
  %110 = load i64, ptr %109, align 8
  %111 = add i64 %110, 1
  store i64 %111, ptr %109, align 8
  %112 = getelementptr inbounds i8, ptr %107, i64 %110
  store i8 %104, ptr %112, align 1
  %113 = load i64, ptr %7, align 8
  %114 = trunc i64 %113 to i16
  %115 = zext i16 %114 to i32
  %116 = ashr i32 %115, 8
  %117 = trunc i32 %116 to i8
  %118 = load ptr, ptr %5, align 8
  %119 = getelementptr inbounds %struct.internal_state, ptr %118, i32 0, i32 2
  %120 = load ptr, ptr %119, align 8
  %121 = load ptr, ptr %5, align 8
  %122 = getelementptr inbounds %struct.internal_state, ptr %121, i32 0, i32 5
  %123 = load i64, ptr %122, align 8
  %124 = add i64 %123, 1
  store i64 %124, ptr %122, align 8
  %125 = getelementptr inbounds i8, ptr %120, i64 %123
  store i8 %117, ptr %125, align 1
  %126 = load i64, ptr %7, align 8
  %127 = xor i64 %126, -1
  %128 = trunc i64 %127 to i16
  %129 = zext i16 %128 to i32
  %130 = and i32 %129, 255
  %131 = trunc i32 %130 to i8
  %132 = load ptr, ptr %5, align 8
  %133 = getelementptr inbounds %struct.internal_state, ptr %132, i32 0, i32 2
  %134 = load ptr, ptr %133, align 8
  %135 = load ptr, ptr %5, align 8
  %136 = getelementptr inbounds %struct.internal_state, ptr %135, i32 0, i32 5
  %137 = load i64, ptr %136, align 8
  %138 = add i64 %137, 1
  store i64 %138, ptr %136, align 8
  %139 = getelementptr inbounds i8, ptr %134, i64 %137
  store i8 %131, ptr %139, align 1
  %140 = load i64, ptr %7, align 8
  %141 = xor i64 %140, -1
  %142 = trunc i64 %141 to i16
  %143 = zext i16 %142 to i32
  %144 = ashr i32 %143, 8
  %145 = trunc i32 %144 to i8
  %146 = load ptr, ptr %5, align 8
  %147 = getelementptr inbounds %struct.internal_state, ptr %146, i32 0, i32 2
  %148 = load ptr, ptr %147, align 8
  %149 = load ptr, ptr %5, align 8
  %150 = getelementptr inbounds %struct.internal_state, ptr %149, i32 0, i32 5
  %151 = load i64, ptr %150, align 8
  %152 = add i64 %151, 1
  store i64 %152, ptr %150, align 8
  %153 = getelementptr inbounds i8, ptr %148, i64 %151
  store i8 %145, ptr %153, align 1
  %154 = load i64, ptr %7, align 8
  %155 = icmp ne i64 %154, 0
  br i1 %155, label %156, label %166

156:                                              ; preds = %98
  %157 = load ptr, ptr %5, align 8
  %158 = getelementptr inbounds %struct.internal_state, ptr %157, i32 0, i32 2
  %159 = load ptr, ptr %158, align 8
  %160 = load ptr, ptr %5, align 8
  %161 = getelementptr inbounds %struct.internal_state, ptr %160, i32 0, i32 5
  %162 = load i64, ptr %161, align 8
  %163 = getelementptr inbounds i8, ptr %159, i64 %162
  %164 = load ptr, ptr %6, align 8
  %165 = load i64, ptr %7, align 8
  call void @llvm.memcpy.p0.p0.i64(ptr align 1 %163, ptr align 1 %164, i64 %165, i1 false)
  br label %166

166:                                              ; preds = %156, %98
  %167 = load i64, ptr %7, align 8
  %168 = load ptr, ptr %5, align 8
  %169 = getelementptr inbounds %struct.internal_state, ptr %168, i32 0, i32 5
  %170 = load i64, ptr %169, align 8
  %171 = add i64 %170, %167
  store i64 %171, ptr %169, align 8
  ret void
}