; Function Attrs: mustprogress nofree norecurse nosync nounwind willreturn memory(readwrite, inaccessiblemem: none) uwtable
define dso_local void @cm_zlib__tr_stored_block(ptr noundef captures(none) %0, ptr noundef readonly captures(none) %1, i64 noundef %2, i32 noundef %3) local_unnamed_addr #1 {
  %5 = getelementptr inbounds nuw i8, ptr %0, i64 5940
  %6 = load i32, ptr %5, align 4
  %7 = icmp sgt i32 %6, 13
  br i1 %7, label %8, label %34

8:                                                ; preds = %4
  %9 = and i32 %3, 65535
  %10 = shl i32 %3, %6
  %11 = getelementptr inbounds nuw i8, ptr %0, i64 5936
  %12 = load i16, ptr %11, align 8
  %13 = trunc i32 %10 to i16
  %14 = or i16 %12, %13
  store i16 %14, ptr %11, align 8
  %15 = trunc i16 %14 to i8
  %16 = getelementptr inbounds nuw i8, ptr %0, i64 16
  %17 = load ptr, ptr %16, align 8
  %18 = getelementptr inbounds nuw i8, ptr %0, i64 40
  %19 = load i64, ptr %18, align 8
  %20 = add i64 %19, 1
  store i64 %20, ptr %18, align 8
  %21 = getelementptr inbounds i8, ptr %17, i64 %19
  store i8 %15, ptr %21, align 1
  %22 = load i16, ptr %11, align 8
  %23 = lshr i16 %22, 8
  %24 = trunc nuw i16 %23 to i8
  %25 = load ptr, ptr %16, align 8
  %26 = load i64, ptr %18, align 8
  %27 = add i64 %26, 1
  store i64 %27, ptr %18, align 8
  %28 = getelementptr inbounds i8, ptr %25, i64 %26
  store i8 %24, ptr %28, align 1
  %29 = load i32, ptr %5, align 4
  %30 = sub nsw i32 16, %29
  %31 = lshr i32 %9, %30
  %32 = trunc nuw i32 %31 to i16
  store i16 %32, ptr %11, align 8
  %33 = add nsw i32 %29, -13
  br label %41

34:                                               ; preds = %4
  %35 = shl i32 %3, %6
  %36 = getelementptr inbounds nuw i8, ptr %0, i64 5936
  %37 = load i16, ptr %36, align 8
  %38 = trunc i32 %35 to i16
  %39 = or i16 %37, %38
  store i16 %39, ptr %36, align 8
  %40 = add nsw i32 %6, 3
  br label %41

41:                                               ; preds = %34, %8
  %42 = phi i16 [ %39, %34 ], [ %32, %8 ]
  %storemerge = phi i32 [ %40, %34 ], [ %33, %8 ]
  %43 = icmp sgt i32 %storemerge, 8
  br i1 %43, label %44, label %60

44:                                               ; preds = %41
  %45 = getelementptr inbounds nuw i8, ptr %0, i64 5936
  %46 = trunc i16 %42 to i8
  %47 = getelementptr inbounds nuw i8, ptr %0, i64 16
  %48 = load ptr, ptr %47, align 8
  %49 = getelementptr inbounds nuw i8, ptr %0, i64 40
  %50 = load i64, ptr %49, align 8
  %51 = add i64 %50, 1
  store i64 %51, ptr %49, align 8
  %52 = getelementptr inbounds i8, ptr %48, i64 %50
  store i8 %46, ptr %52, align 1
  %53 = load i16, ptr %45, align 8
  %54 = lshr i16 %53, 8
  %55 = trunc nuw i16 %54 to i8
  %56 = load ptr, ptr %47, align 8
  %57 = load i64, ptr %49, align 8
  %58 = add i64 %57, 1
  store i64 %58, ptr %49, align 8
  %59 = getelementptr inbounds i8, ptr %56, i64 %57
  store i8 %55, ptr %59, align 1
  br label %bi_windup.exit

60:                                               ; preds = %41
  %61 = icmp sgt i32 %storemerge, 0
  br i1 %61, label %62, label %bi_windup.exit

62:                                               ; preds = %60
  %63 = trunc i16 %42 to i8
  %64 = getelementptr inbounds nuw i8, ptr %0, i64 16
  %65 = load ptr, ptr %64, align 8
  %66 = getelementptr inbounds nuw i8, ptr %0, i64 40
  %67 = load i64, ptr %66, align 8
  %68 = add i64 %67, 1
  store i64 %68, ptr %66, align 8
  %69 = getelementptr inbounds i8, ptr %65, i64 %67
  store i8 %63, ptr %69, align 1
  br label %bi_windup.exit

bi_windup.exit:                                   ; preds = %44, %60, %62
  %70 = getelementptr inbounds nuw i8, ptr %0, i64 5936
  store i16 0, ptr %70, align 8
  store i32 0, ptr %5, align 4
  %71 = trunc i64 %2 to i8
  %72 = getelementptr inbounds nuw i8, ptr %0, i64 16
  %73 = load ptr, ptr %72, align 8
  %74 = getelementptr inbounds nuw i8, ptr %0, i64 40
  %75 = load i64, ptr %74, align 8
  %76 = add i64 %75, 1
  store i64 %76, ptr %74, align 8
  %77 = getelementptr inbounds i8, ptr %73, i64 %75
  store i8 %71, ptr %77, align 1
  %78 = lshr i64 %2, 8
  %79 = trunc i64 %78 to i8
  %80 = load ptr, ptr %72, align 8
  %81 = load i64, ptr %74, align 8
  %82 = add i64 %81, 1
  store i64 %82, ptr %74, align 8
  %83 = getelementptr inbounds i8, ptr %80, i64 %81
  store i8 %79, ptr %83, align 1
  %84 = trunc i64 %2 to i32
  %85 = xor i32 %84, 65535
  %86 = trunc i32 %85 to i8
  %87 = load ptr, ptr %72, align 8
  %88 = load i64, ptr %74, align 8
  %89 = add i64 %88, 1
  store i64 %89, ptr %74, align 8
  %90 = getelementptr inbounds i8, ptr %87, i64 %88
  store i8 %86, ptr %90, align 1
  %91 = lshr i32 %85, 8
  %92 = trunc i32 %91 to i8
  %93 = load ptr, ptr %72, align 8
  %94 = load i64, ptr %74, align 8
  %95 = add i64 %94, 1
  store i64 %95, ptr %74, align 8
  %96 = getelementptr inbounds i8, ptr %93, i64 %94
  store i8 %92, ptr %96, align 1
  %.not = icmp eq i64 %2, 0
  br i1 %.not, label %101, label %97

97:                                               ; preds = %bi_windup.exit
  %98 = load ptr, ptr %72, align 8
  %99 = load i64, ptr %74, align 8
  %100 = getelementptr inbounds i8, ptr %98, i64 %99
  tail call void @llvm.memcpy.p0.p0.i64(ptr align 1 %100, ptr align 1 %1, i64 %2, i1 false)
  br label %101

101:                                              ; preds = %97, %bi_windup.exit
  %102 = load i64, ptr %74, align 8
  %103 = add i64 %102, %2
  store i64 %103, ptr %74, align 8
  ret void
}